; Function Attrs: mustprogress uwtable
define void @_ZN6duckdb22DefaultSecretGeneratorC2ERNS_7CatalogERNS_13SecretManagerERSt13unordered_setINSt7__cxx1112basic_stringIcSt11char_traitsIcESaIcEEENS_33CaseInsensitiveStringHashFunctionENS_29CaseInsensitiveStringEqualityESaISB_EE(ptr noundef nonnull align 8 dereferenceable(88) %0, ptr noundef nonnull align 8 dereferenceable(80) %1, ptr noundef nonnull align 8 dereferenceable(344) %2, ptr noundef nonnull align 8 dereferenceable(56) %3) unnamed_addr #3 align 2 personality ptr @__gxx_personality_v0 {
  %5 = alloca %"struct.std::__detail::_AllocNode.833", align 8
  tail call void @_ZN6duckdb16DefaultGeneratorC2ERNS_7CatalogE(ptr noundef nonnull align 8 dereferenceable(17) %0, ptr noundef nonnull align 8 dereferenceable(80) %1)
  store ptr getelementptr inbounds nuw inrange(-16, 40) (i8, ptr @_ZTVN6duckdb22DefaultSecretGeneratorE, i64 16), ptr %0, align 8, !tbaa !17
  %6 = getelementptr inbounds nuw i8, ptr %0, i64 24
  store ptr %2, ptr %6, align 8, !tbaa !652
  %7 = getelementptr inbounds nuw i8, ptr %0, i64 32
  store ptr null, ptr %7, align 8, !tbaa !70
  %8 = getelementptr inbounds nuw i8, ptr %0, i64 40
  %9 = getelementptr inbounds nuw i8, ptr %3, i64 8
  %10 = load i64, ptr %9, align 8, !tbaa !69
  store i64 %10, ptr %8, align 8, !tbaa !69
  %11 = getelementptr inbounds nuw i8, ptr %0, i64 48
  store ptr null, ptr %11, align 8, !tbaa !67
  %12 = getelementptr inbounds nuw i8, ptr %0, i64 56
  %13 = getelementptr inbounds nuw i8, ptr %3, i64 24
  %14 = load i64, ptr %13, align 8, !tbaa !60
  store i64 %14, ptr %12, align 8, !tbaa !60
  %15 = getelementptr inbounds nuw i8, ptr %0, i64 64
  %16 = getelementptr inbounds nuw i8, ptr %3, i64 32
  tail call void @llvm.memcpy.p0.p0.i64(ptr noundef nonnull align 8 dereferenceable(16) %15, ptr noundef nonnull align 8 dereferenceable(16) %16, i64 16, i1 false), !tbaa.struct !256
  %17 = getelementptr inbounds nuw i8, ptr %0, i64 80
  store ptr null, ptr %17, align 8, !tbaa !653
  call void @llvm.lifetime.start.p0(i64 8, ptr nonnull %5) #33
  store ptr %7, ptr %5, align 8, !tbaa !372
  invoke void @_ZNSt10_HashtableINSt7__cxx1112basic_stringIcSt11char_traitsIcESaIcEEES5_SaIS5_ENSt8__detail9_IdentityEN6duckdb29CaseInsensitiveStringEqualityENS9_33CaseInsensitiveStringHashFunctionENS7_18_Mod_range_hashingENS7_20_Default_ranged_hashENS7_20_Prime_rehash_policyENS7_17_Hashtable_traitsILb1ELb1ELb1EEEE9_M_assignIRKSH_NS7_10_AllocNodeISaINS7_10_Hash_nodeIS5_Lb1EEEEEEEEvOT_RKT0_(ptr noundef nonnull align 8 dereferenceable(56) %7, ptr noundef nonnull align 8 dereferenceable(56) %3, ptr noundef nonnull align 8 dereferenceable(8) %5)
          to label %18 unwind label %19

18:                                               ; preds = %4
  call void @llvm.lifetime.end.p0(i64 8, ptr nonnull %5) #33
  ret void

19:                                               ; preds = %4
  %20 = landingpad { ptr, i32 }
          cleanup
  call void @_ZN6duckdb16DefaultGeneratorD2Ev(ptr noundef nonnull align 8 dereferenceable(17) %0) #33
  resume { ptr, i32 } %20
}